; Function Attrs: nounwind uwtable
define zeroext i8 @l_Lean_Compiler_LCNF_AlphaEqv_withParams_go___at_Lean_Compiler_LCNF_AlphaEqv_eqv___spec__2___lambda__1(ptr noundef %0, ptr noundef %1, ptr noundef %2, ptr noundef %3, ptr noundef %4, ptr noundef readonly captures(none) %5, ptr noundef readonly captures(none) %6, ptr readnone captures(none) %7, ptr noundef %8) local_unnamed_addr #0 {
  %10 = getelementptr inbounds nuw i8, ptr %0, i64 8
  %11 = load ptr, ptr %10, align 8, !tbaa !4
  %12 = ptrtoint ptr %11 to i64
  %13 = and i64 %12, 1
  %.not = icmp eq i64 %13, 0
  br i1 %.not, label %14, label %lean_inc.exit18

14:                                               ; preds = %9
  %.val.i = load i32, ptr %11, align 4, !tbaa !8
  %15 = icmp sgt i32 %.val.i, 0
  br i1 %15, label %16, label %18, !prof !11

16:                                               ; preds = %14
  %17 = add nuw i32 %.val.i, 1
  store i32 %17, ptr %11, align 4, !tbaa !8
  br label %lean_inc.exit18

18:                                               ; preds = %14
  %.not.i25 = icmp eq i32 %.val.i, 0
  br i1 %.not.i25, label %lean_inc.exit18, label %19

19:                                               ; preds = %18
  tail call void @lean_inc_ref_cold(ptr noundef nonnull %11) #4
  br label %lean_inc.exit18

lean_inc.exit18:                                  ; preds = %19, %18, %16, %9
  %20 = ptrtoint ptr %0 to i64
  %21 = and i64 %20, 1
  %.not30 = icmp eq i64 %21, 0
  br i1 %.not30, label %22, label %lean_dec.exit20

22:                                               ; preds = %lean_inc.exit18
  %23 = load i32, ptr %0, align 4, !tbaa !8
  %24 = icmp sgt i32 %23, 1
  br i1 %24, label %25, label %27, !prof !11

25:                                               ; preds = %22
  %26 = add nsw i32 %23, -1
  store i32 %26, ptr %0, align 4, !tbaa !8
  br label %lean_dec.exit20

27:                                               ; preds = %22
  %.not.i = icmp eq i32 %23, 0
  br i1 %.not.i, label %lean_dec.exit20, label %28

28:                                               ; preds = %27
  tail call void @lean_dec_ref_cold(ptr noundef nonnull %0) #4
  br label %lean_dec.exit20

lean_dec.exit20:                                  ; preds = %28, %27, %25, %lean_inc.exit18
  %29 = getelementptr inbounds nuw i8, ptr %1, i64 8
  %30 = load ptr, ptr %29, align 8, !tbaa !4
  %31 = ptrtoint ptr %30 to i64
  %32 = and i64 %31, 1
  %.not31 = icmp eq i64 %32, 0
  br i1 %.not31, label %33, label %lean_inc.exit

33:                                               ; preds = %lean_dec.exit20
  %.val.i26 = load i32, ptr %30, align 4, !tbaa !8
  %34 = icmp sgt i32 %.val.i26, 0
  br i1 %34, label %35, label %37, !prof !11

35:                                               ; preds = %33
  %36 = add nuw i32 %.val.i26, 1
  store i32 %36, ptr %30, align 4, !tbaa !8
  br label %lean_inc.exit

37:                                               ; preds = %33
  %.not.i27 = icmp eq i32 %.val.i26, 0
  br i1 %.not.i27, label %lean_inc.exit, label %38

38:                                               ; preds = %37
  tail call void @lean_inc_ref_cold(ptr noundef nonnull %30) #4
  br label %lean_inc.exit

lean_inc.exit:                                    ; preds = %38, %37, %35, %lean_dec.exit20
  %39 = ptrtoint ptr %1 to i64
  %40 = and i64 %39, 1
  %.not32 = icmp eq i64 %40, 0
  br i1 %.not32, label %41, label %lean_dec.exit19

41:                                               ; preds = %lean_inc.exit
  %42 = load i32, ptr %1, align 4, !tbaa !8
  %43 = icmp sgt i32 %42, 1
  br i1 %43, label %44, label %46, !prof !11

44:                                               ; preds = %41
  %45 = add nsw i32 %42, -1
  store i32 %45, ptr %1, align 4, !tbaa !8
  br label %lean_dec.exit19

46:                                               ; preds = %41
  %.not.i21 = icmp eq i32 %42, 0
  br i1 %.not.i21, label %lean_dec.exit19, label %47

47:                                               ; preds = %46
  tail call void @lean_dec_ref_cold(ptr noundef nonnull %1) #4
  br label %lean_dec.exit19

lean_dec.exit19:                                  ; preds = %47, %46, %44, %lean_inc.exit
  %48 = ptrtoint ptr %2 to i64
  %49 = and i64 %48, 1
  %.not33 = icmp eq i64 %49, 0
  br i1 %.not33, label %.critedge.i, label %50, !prof !12

50:                                               ; preds = %lean_dec.exit19
  %51 = lshr i64 %48, 1
  %52 = add nuw i64 %51, 1
  %53 = icmp sgt i64 %52, -1
  br i1 %53, label %54, label %58, !prof !11

54:                                               ; preds = %50
  %55 = shl nuw i64 %52, 1
  %56 = or disjoint i64 %55, 1
  %57 = inttoptr i64 %56 to ptr
  br label %lean_nat_add.exit

58:                                               ; preds = %50
  %59 = tail call ptr @lean_big_usize_to_nat(i64 noundef range(i64 0, -1) %52) #4
  br label %lean_nat_add.exit

.critedge.i:                                      ; preds = %lean_dec.exit19
  %60 = tail call ptr @lean_nat_big_add(ptr noundef %2, ptr noundef nonnull inttoptr (i64 3 to ptr)) #4
  br label %lean_nat_add.exit

lean_nat_add.exit:                                ; preds = %58, %54, %.critedge.i
  %.0.i = phi ptr [ %60, %.critedge.i ], [ %57, %54 ], [ %59, %58 ]
  %61 = tail call ptr @l_Lean_RBNode_insert___at_Lean_FVarIdMap_insert___spec__1___rarg(ptr noundef %8, ptr noundef %30, ptr noundef %11) #4
  %62 = tail call zeroext i8 @l_Lean_Compiler_LCNF_AlphaEqv_withParams_go___at_Lean_Compiler_LCNF_AlphaEqv_eqv___spec__2(ptr noundef %3, ptr noundef %4, ptr nonnull poison, ptr noundef %5, ptr noundef %6, ptr noundef %.0.i, ptr noundef %61)
  %63 = ptrtoint ptr %.0.i to i64
  %64 = and i64 %63, 1
  %.not34 = icmp eq i64 %64, 0
  br i1 %.not34, label %65, label %lean_dec.exit

65:                                               ; preds = %lean_nat_add.exit
  %66 = load i32, ptr %.0.i, align 4, !tbaa !8
  %67 = icmp sgt i32 %66, 1
  br i1 %67, label %68, label %70, !prof !11

68:                                               ; preds = %65
  %69 = add nsw i32 %66, -1
  store i32 %69, ptr %.0.i, align 4, !tbaa !8
  br label %lean_dec.exit

70:                                               ; preds = %65
  %.not.i23 = icmp eq i32 %66, 0
  br i1 %.not.i23, label %lean_dec.exit, label %71

71:                                               ; preds = %70
  tail call void @lean_dec_ref_cold(ptr noundef nonnull %.0.i) #4
  br label %lean_dec.exit

lean_dec.exit:                                    ; preds = %71, %70, %68, %lean_nat_add.exit
  ret i8 %62
}